(dp1
S'output'
p2
S"<type 'exceptions.ValueError'> Invalid boundary in multipart form: ''"
p3
sS'layer'
p4
S'E:\\web2py\\web2py\\applications\\Image_blog\\controllers/default.py'
p5
sS'code'
p6
S'<code object <module> at 03ADF0F8, file "E:\\web2py\\web2py\\applications\\Image_blog\\controllers/default.py", line 8>'
p7
sS'snapshot'
p8
(dp9
S'exception'
p10
(dp11
S'__getslice__'
p12
S"<method-wrapper '__getslice__' of exceptions.ValueError object>"
p13
sS'__str__'
p14
S"<method-wrapper '__str__' of exceptions.ValueError object>"
p15
sS'__reduce__'
p16
S'<built-in method __reduce__ of exceptions.ValueError object>'
p17
sS'__dict__'
p18
S'{}'
p19
sS'message'
p20
S'"Invalid boundary in multipart form: \'\'"'
p21
sS'__sizeof__'
p22
S'<built-in method __sizeof__ of exceptions.ValueError object>'
p23
sS'__init__'
p24
S"<method-wrapper '__init__' of exceptions.ValueError object>"
p25
sS'__setattr__'
p26
S"<method-wrapper '__setattr__' of exceptions.ValueError object>"
p27
sS'__reduce_ex__'
p28
S'<built-in method __reduce_ex__ of exceptions.ValueError object>'
p29
sS'__new__'
p30
S'<built-in method __new__ of type object>'
p31
sS'__format__'
p32
S'<built-in method __format__ of exceptions.ValueError object>'
p33
sS'__class__'
p34
S"<type 'exceptions.ValueError'>"
p35
sS'__doc__'
p36
S"'Inappropriate argument value (of correct type).'"
p37
sS'__getitem__'
p38
S"<method-wrapper '__getitem__' of exceptions.ValueError object>"
p39
sS'__setstate__'
p40
S'<built-in method __setstate__ of exceptions.ValueError object>'
p41
sS'__getattribute__'
p42
S"<method-wrapper '__getattribute__' of exceptions.ValueError object>"
p43
sS'args'
p44
S'("Invalid boundary in multipart form: \'\'",)'
p45
sS'__subclasshook__'
p46
S'<built-in method __subclasshook__ of type object>'
p47
sS'__unicode__'
p48
S'<built-in method __unicode__ of exceptions.ValueError object>'
p49
sS'__delattr__'
p50
S"<method-wrapper '__delattr__' of exceptions.ValueError object>"
p51
sS'__repr__'
p52
S"<method-wrapper '__repr__' of exceptions.ValueError object>"
p53
sS'__hash__'
p54
S"<method-wrapper '__hash__' of exceptions.ValueError object>"
p55
ssS'evalue'
p56
S"Invalid boundary in multipart form: ''"
p57
sS'request'
p58
cgluon.html
XML_unpickle
p59
(S's$M\x00\x00<div><table><tr><td style="font-weight:bold;vertical-align:top;">ajax</td><td style="vertical-align:top;">:</td><td><div>False</div></td></tr><tr><td style="font-weight:bold;vertical-align:top;">application</td><td style="vertical-align:top;">:</td><td><div>Image_blog</div></td></tr><tr><td style="font-weight:bold;vertical-align:top;">args</td><td style="vertical-align:top;">:</td><td><div><table><tr><td><div>android_image</div></td></tr></table></div></td></tr><tr><td style="font-weight:bold;vertical-align:top;">cid</td><td style="vertical-align:top;">:</td><td><div>None</div></td></tr><tr><td style="font-weight:bold;vertical-align:top;">client</td><td style="vertical-align:top;">:</td><td><div>192.168.99.1</div></td></tr><tr><td style="font-weight:bold;vertical-align:top;">controller</td><td style="vertical-align:top;">:</td><td><div>default</div></td></tr><tr><td style="font-weight:bold;vertical-align:top;">cookies</td><td style="vertical-align:top;">:</td><td><div><table></table></div></td></tr><tr><td style="font-weight:bold;vertical-align:top;">env</td><td style="vertical-align:top;">:</td><td><div><table><tr><td style="font-weight:bold;vertical-align:top;">CONTENT_LENGTH</td><td style="vertical-align:top;">:</td><td><div>26802</div></td></tr><tr><td style="font-weight:bold;vertical-align:top;">CONTENT_TYPE</td><td style="vertical-align:top;">:</td><td><div>multipart/form-data; boundary=81df3403-1b79-4308-bfb6-09b0f126349b</div></td></tr><tr><td style="font-weight:bold;vertical-align:top;">HTTP_ACCEPT_ENCODING</td><td style="vertical-align:top;">:</td><td><div>gzip</div></td></tr><tr><td style="font-weight:bold;vertical-align:top;">HTTP_CONNECTION</td><td style="vertical-align:top;">:</td><td><div>Keep-Alive</div></td></tr><tr><td style="font-weight:bold;vertical-align:top;">HTTP_CONTENT_LENGTH</td><td style="vertical-align:top;">:</td><td><div>26802</div></td></tr><tr><td style="font-weight:bold;vertical-align:top;">HTTP_CONTENT_TYPE</td><td style="vertical-align:top;">:</td><td><div>multipart/form-data; boundary=81df3403-1b79-4308-bfb6-09b0f126349b</div></td></tr><tr><td style="font-weight:bold;vertical-align:top;">HTTP_HOST</td><td style="vertical-align:top;">:</td><td><div>192.168.99.1:8000</div></td></tr><tr><td style="font-weight:bold;vertical-align:top;">HTTP_USER_AGENT</td><td style="vertical-align:top;">:</td><td><div>okhttp/3.3.0</div></td></tr><tr><td style="font-weight:bold;vertical-align:top;">PATH_INFO</td><td style="vertical-align:top;">:</td><td><div>/Image_blog/default/api2/android_image</div></td></tr><tr><td style="font-weight:bold;vertical-align:top;">REMOTE_ADDR</td><td style="vertical-align:top;">:</td><td><div>192.168.99.1</div></td></tr><tr><td style="font-weight:bold;vertical-align:top;">REMOTE_PORT</td><td style="vertical-align:top;">:</td><td><div>51829</div></td></tr><tr><td style="font-weight:bold;vertical-align:top;">REQUEST_METHOD</td><td style="vertical-align:top;">:</td><td><div>POST</div></td></tr><tr><td style="font-weight:bold;vertical-align:top;">SCRIPT_NAME</td><td style="vertical-align:top;">:</td><td><div></div></td></tr><tr><td style="font-weight:bold;vertical-align:top;">SERVER_NAME</td><td style="vertical-align:top;">:</td><td><div>DESKTOP-MEBE5G6</div></td></tr><tr><td style="font-weight:bold;vertical-align:top;">SERVER_PORT</td><td style="vertical-align:top;">:</td><td><div>8000</div></td></tr><tr><td style="font-weight:bold;vertical-align:top;">SERVER_PROTOCOL</td><td style="vertical-align:top;">:</td><td><div>HTTP/1.1</div></td></tr><tr><td style="font-weight:bold;vertical-align:top;">SERVER_SOFTWARE</td><td style="vertical-align:top;">:</td><td><div>Rocket 1.2.6</div></td></tr><tr><td style="font-weight:bold;vertical-align:top;">app_folders</td><td style="vertical-align:top;">:</td><td><div>set([&#x27;E:\\\\web2py\\\\web2py\\\\applications\\\\welcome\\\\&#x27;, &#x27;E:\\\\web2py\\\\web2py\\\\applications\\\\admin\\\\&#x27;, &#x27;E:\\\\web2py\\\\web2py\\\\applications\\\\Image_blog\\\\&#x27;])</div></td></tr><tr><td style="font-weight:bold;vertical-align:top;">applications_parent</td><td style="vertical-align:top;">:</td><td><div>E:\\web2py\\web2py</div></td></tr><tr><td style="font-weight:bold;vertical-align:top;">cmd_args</td><td style="vertical-align:top;">:</td><td><div><table></table></div></td></tr><tr><td style="font-weight:bold;vertical-align:top;">cmd_options</td><td style="vertical-align:top;">:</td><td><div>&lt;Values at 0x2c60df0: {&#x27;verbose&#x27;: False, &#x27;ip&#x27;: &#x27;127.0.0.1&#x27;, &#x27;debuglevel&#x27;: 30, &#x27;with_scheduler&#x27;: False, &#x27;shutdown_timeout&#x27;: 5, &#x27;taskbar&#x27;: False, &#x27;with_coverage&#x27;: False, &#x27;pid_filename&#x27;: &#x27;httpserver.pid&#x27;, &#x27;maxthreads&#x27;: None, &#x27;softcron&#x27;: False, &#x27;server_name&#x27;: &#x27;DESKTOP-MEBE5G6&#x27;, &#x27;bpython&#x27;: False, &#x27;nogui&#x27;: False, &#x27;port&#x27;: 8000, &#x27;print_errors&#x27;: False, &#x27;extcron&#x27;: False, &#x27;runcron&#x27;: False, &#x27;run_system_tests&#x27;: False, &#x27;test&#x27;: None, &#x27;folder&#x27;: &#x27;E:\\\\web2py\\\\web2py&#x27;, &#x27;config&#x27;: &#x27;&#x27;, &#x27;minthreads&#x27;: None, &#x27;shell&#x27;: None, &#x27;run&#x27;: &#x27;&#x27;, &#x27;log_filename&#x27;: &#x27;httpserver.log&#x27;, &#x27;profiler_dir&#x27;: None, &#x27;args&#x27;: [&#x27;&#x27;], &#x27;socket_timeout&#x27;: 5, &#x27;ssl_ca_certificate&#x27;: None, &#x27;scheduler&#x27;: None, &#x27;interfaces&#x27;: None, &#x27;ssl_private_key&#x27;: &#x27;&#x27;, &#x27;gae&#x27;: None, &#x27;password&#x27;: &#x27;******&#x27;, &#x27;request_queue_size&#x27;: 5, &#x27;ssl_certificate&#x27;: &#x27;&#x27;, &#x27;cronjob&#x27;: False, &#x27;numthreads&#x27;: None, &#x27;quiet&#x27;: False, &#x27;import_models&#x27;: False, &#x27;timeout&#x27;: 10, &#x27;plain&#x27;: False, &#x27;nobanner&#x27;: False}&gt;</div></td></tr><tr><td style="font-weight:bold;vertical-align:top;">content_length</td><td style="vertical-align:top;">:</td><td><div>26802</div></td></tr><tr><td style="font-weight:bold;vertical-align:top;">content_type</td><td style="vertical-align:top;">:</td><td><div>multipart/form-data; boundary=81df3403-1b79-4308-bfb6-09b0f126349b</div></td></tr><tr><td style="font-weight:bold;vertical-align:top;">db_sessions</td><td style="vertical-align:top;">:</td><td><div>set([])</div></td></tr><tr><td style="font-weight:bold;vertical-align:top;">debugging</td><td style="vertical-align:top;">:</td><td><div>True</div></td></tr><tr><td style="font-weight:bold;vertical-align:top;">gluon_parent</td><td style="vertical-align:top;">:</td><td><div>E:\\web2py\\web2py</div></td></tr><tr><td style="font-weight:bold;vertical-align:top;">http_accept_encoding</td><td style="vertical-align:top;">:</td><td><div>gzip</div></td></tr><tr><td style="font-weight:bold;vertical-align:top;">http_connection</td><td style="vertical-align:top;">:</td><td><div>Keep-Alive</div></td></tr><tr><td style="font-weight:bold;vertical-align:top;">http_content_length</td><td style="vertical-align:top;">:</td><td><div>26802</div></td></tr><tr><td style="font-weight:bold;vertical-align:top;">http_content_type</td><td style="vertical-align:top;">:</td><td><div>multipart/form-data; boundary=81df3403-1b79-4308-bfb6-09b0f126349b</div></td></tr><tr><td style="font-weight:bold;vertical-align:top;">http_host</td><td style="vertical-align:top;">:</td><td><div>192.168.99.1:8000</div></td></tr><tr><td style="font-weight:bold;vertical-align:top;">http_user_agent</td><td style="vertical-align:top;">:</td><td><div>okhttp/3.3.0</div></td></tr><tr><td style="font-weight:bold;vertical-align:top;">is_jython</td><td style="vertical-align:top;">:</td><td><div>False</div></td></tr><tr><td style="font-weight:bold;vertical-align:top;">is_py2</td><td style="vertical-align:top;">:</td><td><div>True</div></td></tr><tr><td style="font-weight:bold;vertical-align:top;">is_pypy</td><td style="vertical-align:top;">:</td><td><div>False</div></td></tr><tr><td style="font-weight:bold;vertical-align:top;">is_source</td><td style="vertical-align:top;">:</td><td><div>False</div></td></tr><tr><td style="font-weight:bold;vertical-align:top;">local_hosts</td><td style="vertical-align:top;">:</td><td><div><table><tr><td><div>fe80::9df4:acb1:e1e5:323%24</div></td></tr><tr><td><div>fe80::b10d:262b:8b5e:d527%25</div></td></tr><tr><td><div>::ffff:127.0.0.1</div></td></tr><tr><td><div>::1</div></td></tr><tr><td><div>DESKTOP-MEBE5G6</div></td></tr><tr><td><div>192.168.99.1</div></td></tr><tr><td><div>fe80::98a8:693b:4d72:c4a8%21</div></td></tr><tr><td><div>192.168.1.3</div></td></tr><tr><td><div>192.168.32.1</div></td></tr><tr><td><div>172.23.161.17</div></td></tr><tr><td><div>127.0.0.1</div></td></tr></table></div></td></tr><tr><td style="font-weight:bold;vertical-align:top;">path_info</td><td style="vertical-align:top;">:</td><td><div>/Image_blog/default/api2/android_image</div></td></tr><tr><td style="font-weight:bold;vertical-align:top;">query_string</td><td style="vertical-align:top;">:</td><td><div></div></td></tr><tr><td style="font-weight:bold;vertical-align:top;">remote_addr</td><td style="vertical-align:top;">:</td><td><div>192.168.99.1</div></td></tr><tr><td style="font-weight:bold;vertical-align:top;">remote_port</td><td style="vertical-align:top;">:</td><td><div>51829</div></td></tr><tr><td style="font-weight:bold;vertical-align:top;">request_method</td><td style="vertical-align:top;">:</td><td><div>POST</div></td></tr><tr><td style="font-weight:bold;vertical-align:top;">request_uri</td><td style="vertical-align:top;">:</td><td><div>/Image_blog/default/api2/android_image</div></td></tr><tr><td style="font-weight:bold;vertical-align:top;">script_name</td><td style="vertical-align:top;">:</td><td><div></div></td></tr><tr><td style="font-weight:bold;vertical-align:top;">server_name</td><td style="vertical-align:top;">:</td><td><div>DESKTOP-MEBE5G6</div></td></tr><tr><td style="font-weight:bold;vertical-align:top;">server_port</td><td style="vertical-align:top;">:</td><td><div>8000</div></td></tr><tr><td style="font-weight:bold;vertical-align:top;">server_protocol</td><td style="vertical-align:top;">:</td><td><div>HTTP/1.1</div></td></tr><tr><td style="font-weight:bold;vertical-align:top;">server_software</td><td style="vertical-align:top;">:</td><td><div>Rocket 1.2.6</div></td></tr><tr><td style="font-weight:bold;vertical-align:top;">web2py_path</td><td style="vertical-align:top;">:</td><td><div>E:\\web2py\\web2py</div></td></tr><tr><td style="font-weight:bold;vertical-align:top;">web2py_version</td><td style="vertical-align:top;">:</td><td><div>2.17.2-stable+timestamp.2018.10.06.18.54.02</div></td></tr><tr><td style="font-weight:bold;vertical-align:top;">wsgi.errors</td><td style="vertical-align:top;">:</td><td><div>&lt;open file &#x27;&lt;stderr&gt;&#x27;, mode &#x27;w&#x27; at 0x01F9D0D0&gt;</div></td></tr><tr><td style="font-weight:bold;vertical-align:top;">wsgi.file_wrapper</td><td style="vertical-align:top;">:</td><td><div>&lt;class wsgiref.util.FileWrapper at 0x02C247A0&gt;</div></td></tr><tr><td style="font-weight:bold;vertical-align:top;">wsgi.input</td><td style="vertical-align:top;">:</td><td><div>&lt;socket._fileobject object at 0x0209B370&gt;</div></td></tr><tr><td style="font-weight:bold;vertical-align:top;">wsgi.multiprocess</td><td style="vertical-align:top;">:</td><td><div>False</div></td></tr><tr><td style="font-weight:bold;vertical-align:top;">wsgi.multithread</td><td style="vertical-align:top;">:</td><td><div>True</div></td></tr><tr><td style="font-weight:bold;vertical-align:top;">wsgi.run_once</td><td style="vertical-align:top;">:</td><td><div>False</div></td></tr><tr><td style="font-weight:bold;vertical-align:top;">wsgi.url_scheme</td><td style="vertical-align:top;">:</td><td><div>http</div></td></tr><tr><td style="font-weight:bold;vertical-align:top;">wsgi.version</td><td style="vertical-align:top;">:</td><td><div><table><tr><td><div>1</div></td></tr><tr><td><div>0</div></td></tr></table></div></td></tr><tr><td style="font-weight:bold;vertical-align:top;">wsgi_errors</td><td style="vertical-align:top;">:</td><td><div>&lt;open file &#x27;&lt;stderr&gt;&#x27;, mode &#x27;w&#x27; at 0x01F9D0D0&gt;</div></td></tr><tr><td style="font-weight:bold;vertical-align:top;">wsgi_file_wrapper</td><td style="vertical-align:top;">:</td><td><div>&lt;class wsgiref.util.FileWrapper at 0x02C247A0&gt;</div></td></tr><tr><td style="font-weight:bold;vertical-align:top;">wsgi_input</td><td style="vertical-align:top;">:</td><td><div>&lt;socket._fileobject object at 0x0209B370&gt;</div></td></tr><tr><td style="font-weight:bold;vertical-align:top;">wsgi_multiprocess</td><td style="vertical-align:top;">:</td><td><div>False</div></td></tr><tr><td style="font-weight:bold;vertical-align:top;">wsgi_multithread</td><td style="vertical-align:top;">:</td><td><div>True</div></td></tr><tr><td style="font-weight:bold;vertical-align:top;">wsgi_run_once</td><td style="vertical-align:top;">:</td><td><div>False</div></td></tr><tr><td style="font-weight:bold;vertical-align:top;">wsgi_url_scheme</td><td style="vertical-align:top;">:</td><td><div>http</div></td></tr><tr><td style="font-weight:bold;vertical-align:top;">wsgi_version</td><td style="vertical-align:top;">:</td><td><div><table><tr><td><div>1</div></td></tr><tr><td><div>0</div></td></tr></table></div></td></tr></table></div></td></tr><tr><td style="font-weight:bold;vertical-align:top;">extension</td><td style="vertical-align:top;">:</td><td><div>html</div></td></tr><tr><td style="font-weight:bold;vertical-align:top;">folder</td><td style="vertical-align:top;">:</td><td><div>E:\\web2py\\web2py\\applications\\Image_blog\\</div></td></tr><tr><td style="font-weight:bold;vertical-align:top;">function</td><td style="vertical-align:top;">:</td><td><div>api2</div></td></tr><tr><td style="font-weight:bold;vertical-align:top;">global_settings</td><td style="vertical-align:top;">:</td><td><div><table><tr><td style="font-weight:bold;vertical-align:top;">app_folders</td><td style="vertical-align:top;">:</td><td><div>set([&#x27;E:\\\\web2py\\\\web2py\\\\applications\\\\welcome\\\\&#x27;, &#x27;E:\\\\web2py\\\\web2py\\\\applications\\\\admin\\\\&#x27;, &#x27;E:\\\\web2py\\\\web2py\\\\applications\\\\Image_blog\\\\&#x27;])</div></td></tr><tr><td style="font-weight:bold;vertical-align:top;">applications_parent</td><td style="vertical-align:top;">:</td><td><div>E:\\web2py\\web2py</div></td></tr><tr><td style="font-weight:bold;vertical-align:top;">cmd_args</td><td style="vertical-align:top;">:</td><td><div><table></table></div></td></tr><tr><td style="font-weight:bold;vertical-align:top;">cmd_options</td><td style="vertical-align:top;">:</td><td><div>&lt;Values at 0x2c60df0: {&#x27;verbose&#x27;: False, &#x27;ip&#x27;: &#x27;127.0.0.1&#x27;, &#x27;debuglevel&#x27;: 30, &#x27;with_scheduler&#x27;: False, &#x27;shutdown_timeout&#x27;: 5, &#x27;taskbar&#x27;: False, &#x27;with_coverage&#x27;: False, &#x27;pid_filename&#x27;: &#x27;httpserver.pid&#x27;, &#x27;maxthreads&#x27;: None, &#x27;softcron&#x27;: False, &#x27;server_name&#x27;: &#x27;DESKTOP-MEBE5G6&#x27;, &#x27;bpython&#x27;: False, &#x27;nogui&#x27;: False, &#x27;port&#x27;: 8000, &#x27;print_errors&#x27;: False, &#x27;extcron&#x27;: False, &#x27;runcron&#x27;: False, &#x27;run_system_tests&#x27;: False, &#x27;test&#x27;: None, &#x27;folder&#x27;: &#x27;E:\\\\web2py\\\\web2py&#x27;, &#x27;config&#x27;: &#x27;&#x27;, &#x27;minthreads&#x27;: None, &#x27;shell&#x27;: None, &#x27;run&#x27;: &#x27;&#x27;, &#x27;log_filename&#x27;: &#x27;httpserver.log&#x27;, &#x27;profiler_dir&#x27;: None, &#x27;args&#x27;: [&#x27;&#x27;], &#x27;socket_timeout&#x27;: 5, &#x27;ssl_ca_certificate&#x27;: None, &#x27;scheduler&#x27;: None, &#x27;interfaces&#x27;: None, &#x27;ssl_private_key&#x27;: &#x27;&#x27;, &#x27;gae&#x27;: None, &#x27;password&#x27;: &#x27;******&#x27;, &#x27;request_queue_size&#x27;: 5, &#x27;ssl_certificate&#x27;: &#x27;&#x27;, &#x27;cronjob&#x27;: False, &#x27;numthreads&#x27;: None, &#x27;quiet&#x27;: False, &#x27;import_models&#x27;: False, &#x27;timeout&#x27;: 10, &#x27;plain&#x27;: False, &#x27;nobanner&#x27;: False}&gt;</div></td></tr><tr><td style="font-weight:bold;vertical-align:top;">db_sessions</td><td style="vertical-align:top;">:</td><td><div>set([])</div></td></tr><tr><td style="font-weight:bold;vertical-align:top;">debugging</td><td style="vertical-align:top;">:</td><td><div>True</div></td></tr><tr><td style="font-weight:bold;vertical-align:top;">gluon_parent</td><td style="vertical-align:top;">:</td><td><div>E:\\web2py\\web2py</div></td></tr><tr><td style="font-weight:bold;vertical-align:top;">is_jython</td><td style="vertical-align:top;">:</td><td><div>False</div></td></tr><tr><td style="font-weight:bold;vertical-align:top;">is_py2</td><td style="vertical-align:top;">:</td><td><div>True</div></td></tr><tr><td style="font-weight:bold;vertical-align:top;">is_pypy</td><td style="vertical-align:top;">:</td><td><div>False</div></td></tr><tr><td style="font-weight:bold;vertical-align:top;">is_source</td><td style="vertical-align:top;">:</td><td><div>False</div></td></tr><tr><td style="font-weight:bold;vertical-align:top;">local_hosts</td><td style="vertical-align:top;">:</td><td><div><table><tr><td><div>fe80::9df4:acb1:e1e5:323%24</div></td></tr><tr><td><div>fe80::b10d:262b:8b5e:d527%25</div></td></tr><tr><td><div>::ffff:127.0.0.1</div></td></tr><tr><td><div>::1</div></td></tr><tr><td><div>DESKTOP-MEBE5G6</div></td></tr><tr><td><div>192.168.99.1</div></td></tr><tr><td><div>fe80::98a8:693b:4d72:c4a8%21</div></td></tr><tr><td><div>192.168.1.3</div></td></tr><tr><td><div>192.168.32.1</div></td></tr><tr><td><div>172.23.161.17</div></td></tr><tr><td><div>127.0.0.1</div></td></tr></table></div></td></tr><tr><td style="font-weight:bold;vertical-align:top;">web2py_version</td><td style="vertical-align:top;">:</td><td><div>2.17.2-stable+timestamp.2018.10.06.18.54.02</div></td></tr></table></div></td></tr><tr><td style="font-weight:bold;vertical-align:top;">is_https</td><td style="vertical-align:top;">:</td><td><div>False</div></td></tr><tr><td style="font-weight:bold;vertical-align:top;">is_local</td><td style="vertical-align:top;">:</td><td><div>True</div></td></tr><tr><td style="font-weight:bold;vertical-align:top;">is_restful</td><td style="vertical-align:top;">:</td><td><div>True</div></td></tr><tr><td style="font-weight:bold;vertical-align:top;">is_scheduler</td><td style="vertical-align:top;">:</td><td><div>False</div></td></tr><tr><td style="font-weight:bold;vertical-align:top;">is_shell</td><td style="vertical-align:top;">:</td><td><div>False</div></td></tr><tr><td style="font-weight:bold;vertical-align:top;">method</td><td style="vertical-align:top;">:</td><td><div>POST</div></td></tr><tr><td style="font-weight:bold;vertical-align:top;">now</td><td style="vertical-align:top;">:</td><td><div>datetime.datetime(2018, 12, 26, 0, 57, 30, 501000)</div></td></tr><tr><td style="font-weight:bold;vertical-align:top;">raw_args</td><td style="vertical-align:top;">:</td><td><div>android_image</div></td></tr><tr><td style="font-weight:bold;vertical-align:top;">raw_extension</td><td style="vertical-align:top;">:</td><td><div>None</div></td></tr><tr><td style="font-weight:bold;vertical-align:top;">url</td><td style="vertical-align:top;">:</td><td><div>/Image_blog/default/api2/android_image</div></td></tr><tr><td style="font-weight:bold;vertical-align:top;">utcnow</td><td style="vertical-align:top;">:</td><td><div>datetime.datetime(2018, 12, 25, 18, 57, 30, 501000)</div></td></tr><tr><td style="font-weight:bold;vertical-align:top;">wsgi</td><td style="vertical-align:top;">:</td><td><div>&lt;gluon.main.LazyWSGI object at 0x041E7230&gt;</div></td></tr></table></div>'
tRp60
sS'frames'
p61
(lp62
(dp63
S'file'
p64
S'E:\\web2py\\web2py\\gluon\\restricted.py'
p65
sS'dump'
p66
(dp67
S'environment'
p68
S"{'A': <class 'gluon.html.A'>, 'ANY_OF': <class 'gluon.validators.ANY_OF'>, 'ASSIGNJS': <function ASSIGNJS>, 'AppConfig': <function AppConfig>, 'Auth': <class 'gluon.tools.Auth'>, 'B': <class 'gluon.html.B'>, 'BEAUTIFY': <class 'gluon.html.BEAUTIFY'>, 'BODY': <class 'gluon.html.BODY'>, 'BR': <class 'gluon.html.BR'>, 'BUTTON': <class 'gluon.html.BUTTON'>, ...}"
p69
sS'ccode'
p70
S'<code object <module> at 03ADF0F8, file "E:\\web2...tions\\Image_blog\\controllers/default.py", line 8>'
p71
ssS'lnum'
p72
I219
sS'lines'
p73
(dp74
I214
S'    if environment is None:'
p75
sI215
S'        environment = {}'
p76
sI216
S"    environment['__file__'] = layer"
p77
sI217
S"    environment['__name__'] = '__restricted__'"
p78
sI218
S'    try:'
p79
sI219
S'        exec(ccode, environment)'
p80
sI220
S'    except HTTP:'
p81
sI221
S'        raise'
p82
sI222
S'    except RestrictedError:'
p83
sI223
S'        # do not encapsulate (obfuscate) the original RestrictedError'
p84
ssS'call'
p85
S'(ccode=<code object <module> at 03ADF0F8, file "E:\\web2...tions\\Image_blog\\controllers/default.py", line 8>, environment={\'A\': <class \'gluon.html.A\'>, \'ANY_OF\': <class \'gluon.validators.ANY_OF\'>, \'ASSIGNJS\': <function ASSIGNJS>, \'AppConfig\': <function AppConfig>, \'Auth\': <class \'gluon.tools.Auth\'>, \'B\': <class \'gluon.html.B\'>, \'BEAUTIFY\': <class \'gluon.html.BEAUTIFY\'>, \'BODY\': <class \'gluon.html.BODY\'>, \'BR\': <class \'gluon.html.BR\'>, \'BUTTON\': <class \'gluon.html.BUTTON\'>, ...}, layer=r\'E:\\web2py\\web2py\\applications\\Image_blog\\controllers/default.py\', scode=<code object <module> at 03ADF0F8, file "E:\\web2...tions\\Image_blog\\controllers/default.py", line 8>)'
p86
sS'func'
p87
S'restricted'
p88
sa(dp89
g64
S'E:\\web2py\\web2py\\applications\\Image_blog\\controllers\\default.py'
p90
sg66
(dp91
sg72
I141
sg73
(dp92
I130
S'    return dict(form=auth())'
p93
sI131
S''
sI132
S'# ---- action to server uploaded static content (required) ---'
p94
sI133
S'@cache.action()'
p95
sI134
S'def download():'
p96
sI135
S'    """'
p97
sI136
S'    allows downloading of uploaded files'
p98
sI137
S'    http://..../[app]/default/download/[filename]'
p99
sI138
S'    """'
p100
sI139
S'    return response.download(request, db)'
p101
ssg85
S'()'
p102
sg87
S'<module>'
p103
sa(dp104
g64
S'E:\\web2py\\web2py\\gluon\\globals.py'
p105
sg66
(dp106
S'self'
p107
S'undefined'
p108
sS'f'
S'<function api2>'
p109
ssg72
I421
sg73
(dp110
I416
S"        self.flash = ''            # used by the default view layout"
p111
sI417
S'        self.meta = Storage()      # used by web2py_ajax.html'
p112
sI418
S'        self.menu = []             # used by the default view layout'
p113
sI419
S'        self.files = []            # used by web2py_ajax.html'
p114
sI420
S'        self._vars = None'
p115
sI421
S'        self._caller = lambda f: f()'
p116
sI422
S'        self._view_environment = None'
p117
sI423
S'        self._custom_commit = None'
p118
sI424
S'        self._custom_rollback = None'
p119
sI425
S"        self.generic_patterns = ['*']"
p120
ssg85
S'(f=<function api2>)'
p121
sg87
S'<lambda>'
p122
sa(dp123
g64
S'E:\\web2py\\web2py\\gluon\\globals.py'
p124
sg66
(dp125
S'rest_action'
p126
S'<function POST>'
p127
sS'res'
p128
g108
sS'request.args'
p129
S"['android_image']"
p130
sS'request'
p131
S"<Storage {'function': 'api2', 'cookies': <Simple...se, 'is_https': False, 'client': '192.168.99.1'}>"
p132
sS'request.vars'
p133
S'<Storage {}>'
p134
ssg72
I384
sg73
(dp135
I384
S'                    res = rest_action(*request.args, **request.vars)'
p136
sI385
S'                    if is_json and not isinstance(res, str):'
p137
sI386
S'                        res = json(res)'
p138
sI387
S'                    return res'
p139
sI388
S'                except TypeError as e:'
p140
sI379
S'                rest_action = _action().get(method, None)'
p141
sI380
S'                if not (rest_action and method == method.upper()'
p142
sI381
S'                        and callable(rest_action)):'
p143
sI382
S'                    raise HTTP(405, "method not allowed")'
p144
sI383
S'                try:'
p145
ssg85
S'(_action=<function api2>, *a=(), **b={})'
p146
sg87
S'f'
sa(dp147
g64
S'E:\\web2py\\web2py\\gluon\\globals.py'
p148
sg66
(dp149
S'self.parse_all_vars'
p150
S"<bound method Request.parse_all_vars of <Storage...e, 'is_https': False, 'client': '192.168.99.1'}>>"
p151
sS'self'
p152
S"<Storage {'function': 'api2', 'cookies': <Simple...se, 'is_https': False, 'client': '192.168.99.1'}>"
p153
ssg72
I316
sg73
(dp154
I320
S'    def uuid(self):'
p155
sI311
S'    @property'
p156
sI312
S'    def vars(self):'
p157
sI313
S'        """Lazily parses all get_vars and post_vars to fill vars'
p158
sI314
S'        """'
p159
sI315
S'        if self._vars is None:'
p160
sI316
S'            self.parse_all_vars()'
p161
sI317
S'        return self._vars'
p162
sI318
S''
sI319
S'    @property'
p163
ssg85
S"(self=<Storage {'function': 'api2', 'cookies': <Simple...se, 'is_https': False, 'client': '192.168.99.1'}>)"
p164
sg87
S'vars'
p165
sa(dp166
g64
S'E:\\web2py\\web2py\\gluon\\globals.py'
p167
sg66
(dp168
S'self'
p169
S"<Storage {'function': 'api2', 'cookies': <Simple...se, 'is_https': False, 'client': '192.168.99.1'}>"
p170
sS'global iteritems'
p171
S'<function <lambda>>'
p172
sS'value'
p173
g108
sS'key'
p174
g108
sS'self.post_vars'
p175
S'<Storage {}>'
p176
ssg72
I287
sg73
(dp177
I288
S'            if key not in self._vars:'
p178
sI289
S'                self._vars[key] = value'
p179
sI290
S'            else:'
p180
sI291
S'                if not isinstance(self._vars[key], list):'
p181
sI282
S''
sI283
S'    def parse_all_vars(self):'
p182
sI284
S'        """Merges get_vars and post_vars to vars'
p183
sI285
S'        """'
p184
sI286
S'        self._vars = copy.copy(self.get_vars)'
p185
sI287
S'        for key, value in iteritems(self.post_vars):'
p186
ssg85
S"(self=<Storage {'function': 'api2', 'cookies': <Simple...se, 'is_https': False, 'client': '192.168.99.1'}>)"
p187
sg87
S'parse_all_vars'
p188
sa(dp189
g64
S'E:\\web2py\\web2py\\gluon\\globals.py'
p190
sg66
(dp191
S'self'
p192
S"<Storage {'function': 'api2', 'cookies': <Simple...se, 'is_https': False, 'client': '192.168.99.1'}>"
p193
sS'self.parse_post_vars'
p194
S"<bound method Request.parse_post_vars of <Storag...e, 'is_https': False, 'client': '192.168.99.1'}>>"
p195
ssg72
I308
sg73
(dp196
I303
S'    @property'
p197
sI304
S'    def post_vars(self):'
p198
sI305
S'        """Lazily parse the body into post_vars'
p199
sI306
S'        """'
p200
sI307
S'        if self._post_vars is None:'
p201
sI308
S'            self.parse_post_vars()'
p202
sI309
S'        return self._post_vars'
p203
sI310
S''
sI311
S'    @property'
p204
sI312
S'    def vars(self):'
p205
ssg85
S"(self=<Storage {'function': 'api2', 'cookies': <Simple...se, 'is_https': False, 'client': '192.168.99.1'}>)"
p206
sg87
S'post_vars'
p207
sa(dp208
g64
S'E:\\web2py\\web2py\\gluon\\globals.py'
p209
sg66
(dp210
S'fp'
p211
g108
sS'body'
p212
S"<open file '<fdopen>', mode 'w+b'>"
p213
sS'cgi.FieldStorage'
p214
S'<class cgi.FieldStorage>'
p215
sS'global cgi'
p216
S"<module 'cgi' from 'E:\\web2py\\web2py\\library.zip\\cgi.pyc'>"
p217
sS'keep_blank_values'
p218
g108
sS'environ'
p219
g108
sS'env'
p220
S"<Storage {'content_length': '26802', 'SERVER_SOF... at 0x02C247A0>, 'HTTP_ACCEPT_ENCODING': 'gzip'}>"
p221
sS'dpost'
p222
g108
ssg72
I244
sg73
(dp223
I239
S'            body.seek(0)'
p224
sI240
S''
sI241
S'        # parse POST variables on POST, PUT, BOTH only in post_vars'
p225
sI242
S"        if body and not is_json and env.request_method in ('POST', 'PUT', 'DELETE', 'BOTH'):"
p226
sI243
S"            query_string = env.pop('QUERY_STRING', None)"
p227
sI244
S'            dpost = cgi.FieldStorage(fp=body, environ=env, keep_blank_values=1)'
p228
sI245
S'            try:'
p229
sI246
S'                post_vars.update(dpost)'
p230
sI247
S'            except:'
p231
sI248
S'                pass'
p232
ssg85
S"(self=<Storage {'function': 'api2', 'cookies': <Simple...se, 'is_https': False, 'client': '192.168.99.1'}>)"
p233
sg87
S'parse_post_vars'
p234
sa(dp235
g64
S'E:\\web2py\\web2py\\cgi.py'
p236
sg66
(dp237
sg72
I507
sg73
(dp238
sg85
S"(self=FieldStorage(None, None, []), fp=<open file '<fdopen>', mode 'w+b'>, headers={'content-length': '26802', 'content-type': 'multipart/form-data; boundary=81df3403-1b79-4308-bfb6-09b0f126349b'}, outerboundary='', environ=<Storage {'content_length': '26802', 'SERVER_SOF... at 0x02C247A0>, 'HTTP_ACCEPT_ENCODING': 'gzip'}>, keep_blank_values=1, strict_parsing=0)"
p239
sg87
g24
sa(dp240
g64
S'E:\\web2py\\web2py\\cgi.py'
p241
sg66
(dp242
sg72
I636
sg73
(dp243
sg85
S"(self=FieldStorage(None, None, []), environ=<Storage {'content_length': '26802', 'SERVER_SOF... at 0x02C247A0>, 'HTTP_ACCEPT_ENCODING': 'gzip'}>, keep_blank_values=1, strict_parsing=0)"
p244
sg87
S'read_multi'
p245
sa(dp246
g64
S'E:\\web2py\\web2py\\cgi.py'
p247
sg66
(dp248
sg72
I507
sg73
(dp249
sg85
S"(self=FieldStorage('file', 'IMG_20181226_004237.jpg', None), fp=<open file '<fdopen>', mode 'w+b'>, headers=<rfc822.Message instance>, outerboundary='81df3403-1b79-4308-bfb6-09b0f126349b', environ=<Storage {'content_length': '26802', 'SERVER_SOF... at 0x02C247A0>, 'HTTP_ACCEPT_ENCODING': 'gzip'}>, keep_blank_values=1, strict_parsing=0)"
p250
sg87
g24
sa(dp251
g64
S'E:\\web2py\\web2py\\cgi.py'
p252
sg66
(dp253
sg72
I621
sg73
(dp254
sg85
S"(self=FieldStorage('file', 'IMG_20181226_004237.jpg', None), environ=<Storage {'content_length': '26802', 'SERVER_SOF... at 0x02C247A0>, 'HTTP_ACCEPT_ENCODING': 'gzip'}>, keep_blank_values=1, strict_parsing=0)"
p255
sg87
g245
sasS'pyver'
p256
S'Python 2.7.9: E:\\web2py\\web2py\\web2py.exe (prefix: )'
p257
sS'session'
p258
g59
(S's\x1a\x00\x00\x00<div><table></table></div>'
tRp259
sS'etype'
p260
S"<type 'exceptions.ValueError'>"
p261
sS'date'
p262
S'Wed Dec 26 00:57:30 2018'
p263
sS'response'
p264
g59
(S's\x9a\x1a\x00\x00<div><table><tr><td style="font-weight:bold;vertical-align:top;">body</td><td style="vertical-align:top;">:</td><td><div>&lt;cStringIO.StringO object at 0x04106C20&gt;</div></td></tr><tr><td style="font-weight:bold;vertical-align:top;">cookies</td><td style="vertical-align:top;">:</td><td><div><table><tr><td style="font-weight:bold;vertical-align:top;">session_id_image_blog</td><td style="vertical-align:top;">:</td><td><div>192.168.99.1-4637e0dc-0a94-4dc2-ae80-9f97fd22dc10<table><tr><td style="font-weight:bold;vertical-align:top;">comment</td><td style="vertical-align:top;">:</td><td><div></div></td></tr><tr><td style="font-weight:bold;vertical-align:top;">domain</td><td style="vertical-align:top;">:</td><td><div></div></td></tr><tr><td style="font-weight:bold;vertical-align:top;">expires</td><td style="vertical-align:top;">:</td><td><div></div></td></tr><tr><td style="font-weight:bold;vertical-align:top;">httponly</td><td style="vertical-align:top;">:</td><td><div></div></td></tr><tr><td style="font-weight:bold;vertical-align:top;">max-age</td><td style="vertical-align:top;">:</td><td><div></div></td></tr><tr><td style="font-weight:bold;vertical-align:top;">path</td><td style="vertical-align:top;">:</td><td><div>/</div></td></tr><tr><td style="font-weight:bold;vertical-align:top;">samesite</td><td style="vertical-align:top;">:</td><td><div></div></td></tr><tr><td style="font-weight:bold;vertical-align:top;">secure</td><td style="vertical-align:top;">:</td><td><div></div></td></tr><tr><td style="font-weight:bold;vertical-align:top;">version</td><td style="vertical-align:top;">:</td><td><div></div></td></tr></table></div></td></tr></table></div></td></tr><tr><td style="font-weight:bold;vertical-align:top;">delimiters</td><td style="vertical-align:top;">:</td><td><div><table><tr><td><div>{{</div></td></tr><tr><td><div>}}</div></td></tr></table></div></td></tr><tr><td style="font-weight:bold;vertical-align:top;">files</td><td style="vertical-align:top;">:</td><td><div><table></table></div></td></tr><tr><td style="font-weight:bold;vertical-align:top;">flash</td><td style="vertical-align:top;">:</td><td><div></div></td></tr><tr><td style="font-weight:bold;vertical-align:top;">form_label_separator</td><td style="vertical-align:top;">:</td><td><div></div></td></tr><tr><td style="font-weight:bold;vertical-align:top;">formstyle</td><td style="vertical-align:top;">:</td><td><div>bootstrap4_inline</div></td></tr><tr><td style="font-weight:bold;vertical-align:top;">generic_patterns</td><td style="vertical-align:top;">:</td><td><div><table><tr><td><div>*</div></td></tr></table></div></td></tr><tr><td style="font-weight:bold;vertical-align:top;">google_analytics_id</td><td style="vertical-align:top;">:</td><td><div>None</div></td></tr><tr><td style="font-weight:bold;vertical-align:top;">headers</td><td style="vertical-align:top;">:</td><td><div><table><tr><td style="font-weight:bold;vertical-align:top;">X-Powered-By</td><td style="vertical-align:top;">:</td><td><div>web2py</div></td></tr></table></div></td></tr><tr><td style="font-weight:bold;vertical-align:top;">menu</td><td style="vertical-align:top;">:</td><td><div><table></table></div></td></tr><tr><td style="font-weight:bold;vertical-align:top;">meta</td><td style="vertical-align:top;">:</td><td><div><table><tr><td style="font-weight:bold;vertical-align:top;">author</td><td style="vertical-align:top;">:</td><td><div>Your Name &lt;you@example.com&gt;</div></td></tr><tr><td style="font-weight:bold;vertical-align:top;">description</td><td style="vertical-align:top;">:</td><td><div>a cool new app</div></td></tr><tr><td style="font-weight:bold;vertical-align:top;">generator</td><td style="vertical-align:top;">:</td><td><div>Web2py Web Framework</div></td></tr><tr><td style="font-weight:bold;vertical-align:top;">keywords</td><td style="vertical-align:top;">:</td><td><div><table><tr><td><div>web2py</div></td></tr><tr><td><div>python</div></td></tr><tr><td><div>framework</div></td></tr></table></div></td></tr></table></div></td></tr><tr><td style="font-weight:bold;vertical-align:top;">models_to_run</td><td style="vertical-align:top;">:</td><td><div><table><tr><td><div>^\\w+\\.py$</div></td></tr><tr><td><div>^default/\\w+\\.py$</div></td></tr><tr><td><div>^default/api2/\\w+\\.py$</div></td></tr></table></div></td></tr><tr><td style="font-weight:bold;vertical-align:top;">postprocessing</td><td style="vertical-align:top;">:</td><td><div><table></table></div></td></tr><tr><td style="font-weight:bold;vertical-align:top;">session_client</td><td style="vertical-align:top;">:</td><td><div>192.168.99.1</div></td></tr><tr><td style="font-weight:bold;vertical-align:top;">session_cookie_compression_level</td><td style="vertical-align:top;">:</td><td><div>None</div></td></tr><tr><td style="font-weight:bold;vertical-align:top;">session_cookie_expires</td><td style="vertical-align:top;">:</td><td><div>None</div></td></tr><tr><td style="font-weight:bold;vertical-align:top;">session_data_name</td><td style="vertical-align:top;">:</td><td><div>session_data_image_blog</div></td></tr><tr><td style="font-weight:bold;vertical-align:top;">session_file</td><td style="vertical-align:top;">:</td><td><div>None</div></td></tr><tr><td style="font-weight:bold;vertical-align:top;">session_filename</td><td style="vertical-align:top;">:</td><td><div>E:\\web2py\\web2py\\applications\\Image_blog\\sessions\\192.168.99.1-4637e0dc-0a94-4dc2-ae80-9f97fd22dc10</div></td></tr><tr><td style="font-weight:bold;vertical-align:top;">session_hash</td><td style="vertical-align:top;">:</td><td><div>c0762cbf4baf7f9af97c051e7fcb8083</div></td></tr><tr><td style="font-weight:bold;vertical-align:top;">session_id</td><td style="vertical-align:top;">:</td><td><div>192.168.99.1-4637e0dc-0a94-4dc2-ae80-9f97fd22dc10</div></td></tr><tr><td style="font-weight:bold;vertical-align:top;">session_id_name</td><td style="vertical-align:top;">:</td><td><div>session_id_image_blog</div></td></tr><tr><td style="font-weight:bold;vertical-align:top;">session_masterapp</td><td style="vertical-align:top;">:</td><td><div>Image_blog</div></td></tr><tr><td style="font-weight:bold;vertical-align:top;">session_new</td><td style="vertical-align:top;">:</td><td><div>True</div></td></tr><tr><td style="font-weight:bold;vertical-align:top;">session_storage_type</td><td style="vertical-align:top;">:</td><td><div>file</div></td></tr><tr><td style="font-weight:bold;vertical-align:top;">show_toolbar</td><td style="vertical-align:top;">:</td><td><div>False</div></td></tr><tr><td style="font-weight:bold;vertical-align:top;">status</td><td style="vertical-align:top;">:</td><td><div>200</div></td></tr><tr><td style="font-weight:bold;vertical-align:top;">view</td><td style="vertical-align:top;">:</td><td><div>generic.json</div></td></tr></table></div>'
tRp265
sS'locals'
p266
(dp267
S'strict_parsing'
p268
S'0'
sS'keep_blank_values'
p269
S'1'
sS'self'
p270
S"FieldStorage('file', 'IMG_20181226_004237.jpg', None)"
p271
sS'ib'
p272
S"''"
p273
sS'environ'
p274
S"<Storage {'content_length': '26802', 'SERVER_SOF... at 0x02C247A0>, 'HTTP_ACCEPT_ENCODING': 'gzip'}>"
p275
sssS'traceback'
p276
S'Traceback (most recent call last):\n  File "E:\\web2py\\web2py\\gluon\\restricted.py", line 219, in restricted\n    exec(ccode, environment)\n  File "E:\\web2py\\web2py\\applications\\Image_blog\\controllers/default.py", line 141, in <module>\n  File "E:\\web2py\\web2py\\gluon\\globals.py", line 421, in <lambda>\n    self._caller = lambda f: f()\n  File "E:\\web2py\\web2py\\gluon\\globals.py", line 384, in f\n    res = rest_action(*request.args, **request.vars)\n  File "E:\\web2py\\web2py\\gluon\\globals.py", line 316, in vars\n    self.parse_all_vars()\n  File "E:\\web2py\\web2py\\gluon\\globals.py", line 287, in parse_all_vars\n    for key, value in iteritems(self.post_vars):\n  File "E:\\web2py\\web2py\\gluon\\globals.py", line 308, in post_vars\n    self.parse_post_vars()\n  File "E:\\web2py\\web2py\\gluon\\globals.py", line 244, in parse_post_vars\n    dpost = cgi.FieldStorage(fp=body, environ=env, keep_blank_values=1)\n  File "cgi.py", line 507, in __init__\n  File "cgi.py", line 636, in read_multi\n  File "cgi.py", line 507, in __init__\n  File "cgi.py", line 621, in read_multi\nValueError: Invalid boundary in multipart form: \'\'\n'
p277
s.